; Function Attrs: nounwind uwtable
define range(i32 -20, 1) i32 @IDAGetIntegratorStats(ptr noundef readonly %0, ptr noundef writeonly captures(none) %1, ptr noundef writeonly captures(none) %2, ptr noundef writeonly captures(none) %3, ptr noundef writeonly captures(none) %4, ptr noundef writeonly captures(none) %5, ptr noundef writeonly captures(none) %6, ptr noundef writeonly captures(none) %7, ptr noundef writeonly captures(none) %8, ptr noundef writeonly captures(none) %9, ptr noundef writeonly captures(none) %10) local_unnamed_addr #0 {
  %12 = icmp eq ptr %0, null
  br i1 %12, label %13, label %14

13:                                               ; preds = %11
  tail call void (ptr, i32, i32, ptr, ptr, ptr, ...) @IDAProcessError(ptr noundef null, i32 noundef -20, i32 noundef 1525, ptr noundef nonnull @__func__.IDAGetIntegratorStats, ptr noundef nonnull @.str, ptr noundef nonnull @.str.1) #9
  br label %35

14:                                               ; preds = %11
  %15 = getelementptr inbounds nuw i8, ptr %0, i64 1464
  %16 = load i64, ptr %15, align 8
  store i64 %16, ptr %1, align 8
  %17 = getelementptr inbounds nuw i8, ptr %0, i64 1472
  %18 = load i64, ptr %17, align 8
  store i64 %18, ptr %2, align 8
  %19 = getelementptr inbounds nuw i8, ptr %0, i64 1608
  %20 = load i64, ptr %19, align 8
  store i64 %20, ptr %3, align 8
  %21 = getelementptr inbounds nuw i8, ptr %0, i64 1544
  %22 = load i64, ptr %21, align 8
  store i64 %22, ptr %4, align 8
  %23 = getelementptr inbounds nuw i8, ptr %0, i64 1212
  %24 = load i32, ptr %23, align 4
  store i32 %24, ptr %5, align 4
  %25 = getelementptr inbounds nuw i8, ptr %0, i64 1208
  %26 = load i32, ptr %25, align 8
  store i32 %26, ptr %6, align 4
  %27 = getelementptr inbounds nuw i8, ptr %0, i64 1240
  %28 = load double, ptr %27, align 8
  store double %28, ptr %7, align 8
  %29 = getelementptr inbounds nuw i8, ptr %0, i64 1256
  %30 = load double, ptr %29, align 8
  store double %30, ptr %8, align 8
  %31 = getelementptr inbounds nuw i8, ptr %0, i64 1248
  %32 = load double, ptr %31, align 8
  store double %32, ptr %9, align 8
  %33 = getelementptr inbounds nuw i8, ptr %0, i64 1272
  %34 = load double, ptr %33, align 8
  store double %34, ptr %10, align 8
  br label %35

35:                                               ; preds = %14, %13
  %.0 = phi i32 [ -20, %13 ], [ 0, %14 ]
  ret i32 %.0
}